; ModuleID = 'source-C-CXX/48/618.cpp'
source_filename = "source-C-CXX/48/618.cpp"
target datalayout = "e-m:e-p270:32:32-p271:32:32-p272:64:64-i64:64-f80:128-n8:16:32:64-S128"
target triple = "x86_64-pc-linux-gnu"

%"class.std::ios_base::Init" = type { i8 }
%"class.std::basic_istream" = type { i32 (...)**, i64, %"class.std::basic_ios" }
%"class.std::basic_ios" = type { %"class.std::ios_base", %"class.std::basic_ostream"*, i8, i8, %"class.std::basic_streambuf"*, %"class.std::ctype"*, %"class.std::num_put"*, %"class.std::num_get"* }
%"class.std::ios_base" = type { i32 (...)**, i64, i64, i32, i32, i32, %"struct.std::ios_base::_Callback_list"*, %"struct.std::ios_base::_Words", [8 x %"struct.std::ios_base::_Words"], i32, %"struct.std::ios_base::_Words"*, %"class.std::locale" }
%"struct.std::ios_base::_Callback_list" = type { %"struct.std::ios_base::_Callback_list"*, void (i32, %"class.std::ios_base"*, i32)*, i32, i32 }
%"struct.std::ios_base::_Words" = type { i8*, i64 }
%"class.std::locale" = type { %"class.std::locale::_Impl"* }
%"class.std::locale::_Impl" = type { i32, %"class.std::locale::facet"**, i64, %"class.std::locale::facet"**, i8** }
%"class.std::locale::facet" = type <{ i32 (...)**, i32, [4 x i8] }>
%"class.std::basic_ostream" = type { i32 (...)**, %"class.std::basic_ios" }
%"class.std::basic_streambuf" = type { i32 (...)**, i8*, i8*, i8*, i8*, i8*, i8*, %"class.std::locale" }
%"class.std::ctype" = type <{ %"class.std::locale::facet.base", [4 x i8], %struct.__locale_struct*, i8, [7 x i8], i32*, i32*, i16*, i8, [256 x i8], [256 x i8], i8, [6 x i8] }>
%"class.std::locale::facet.base" = type <{ i32 (...)**, i32 }>
%struct.__locale_struct = type { [13 x %struct.__locale_data*], i16*, i32*, i32*, [13 x i8*] }
%struct.__locale_data = type opaque
%"class.std::num_put" = type { %"class.std::locale::facet.base", [4 x i8] }
%"class.std::num_get" = type { %"class.std::locale::facet.base", [4 x i8] }

@_ZStL8__ioinit = internal global %"class.std::ios_base::Init" zeroinitializer, align 1
@__dso_handle = external hidden global i8
@_ZSt3cin = external global %"class.std::basic_istream", align 8
@_ZSt4cout = external global %"class.std::basic_ostream", align 8
@llvm.global_ctors = appending global [1 x { i32, void ()*, i8* }] [{ i32, void ()*, i8* } { i32 65535, void ()* @_GLOBAL__sub_I_618.cpp, i8* null }]

declare void @_ZNSt8ios_base4InitC1Ev(%"class.std::ios_base::Init"* nonnull align 1 dereferenceable(1)) unnamed_addr #0

; Function Attrs: nounwind
declare void @_ZNSt8ios_base4InitD1Ev(%"class.std::ios_base::Init"* nonnull align 1 dereferenceable(1)) unnamed_addr #1

; Function Attrs: nofree nounwind
declare i32 @__cxa_atexit(void (i8*)*, i8*, i8*) local_unnamed_addr #2

; Function Attrs: mustprogress norecurse sspstrong uwtable
define dso_local i32 @main() local_unnamed_addr #3 {
  %1 = alloca i8, align 1
  %2 = alloca [500 x i8], align 16
  %3 = getelementptr inbounds [500 x i8], [500 x i8]* %2, i64 0, i64 0
  call void @llvm.lifetime.start.p0i8(i64 500, i8* nonnull %3) #8
  %4 = load i8*, i8** bitcast (%"class.std::basic_istream"* @_ZSt3cin to i8**), align 8, !tbaa !5
  %5 = getelementptr i8, i8* %4, i64 -24
  %6 = bitcast i8* %5 to i64*
  %7 = load i64, i64* %6, align 8
  %8 = add nsw i64 %7, 240
  %9 = getelementptr inbounds i8, i8* bitcast (%"class.std::basic_istream"* @_ZSt3cin to i8*), i64 %8
  %10 = bitcast i8* %9 to %"class.std::ctype"**
  %11 = load %"class.std::ctype"*, %"class.std::ctype"** %10, align 8, !tbaa !8
  %12 = icmp eq %"class.std::ctype"* %11, null
  br i1 %12, label %13, label %14

13:                                               ; preds = %0
  tail call void @_ZSt16__throw_bad_castv() #9
  unreachable

14:                                               ; preds = %0
  %15 = getelementptr inbounds %"class.std::ctype", %"class.std::ctype"* %11, i64 0, i32 8
  %16 = load i8, i8* %15, align 8, !tbaa !13
  %17 = icmp eq i8 %16, 0
  br i1 %17, label %21, label %18

18:                                               ; preds = %14
  %19 = getelementptr inbounds %"class.std::ctype", %"class.std::ctype"* %11, i64 0, i32 9, i64 10
  %20 = load i8, i8* %19, align 1, !tbaa !15
  br label %27

21:                                               ; preds = %14
  tail call void @_ZNKSt5ctypeIcE13_M_widen_initEv(%"class.std::ctype"* nonnull align 8 dereferenceable(570) %11)
  %22 = bitcast %"class.std::ctype"* %11 to i8 (%"class.std::ctype"*, i8)***
  %23 = load i8 (%"class.std::ctype"*, i8)**, i8 (%"class.std::ctype"*, i8)*** %22, align 8, !tbaa !5
  %24 = getelementptr inbounds i8 (%"class.std::ctype"*, i8)*, i8 (%"class.std::ctype"*, i8)** %23, i64 6
  %25 = load i8 (%"class.std::ctype"*, i8)*, i8 (%"class.std::ctype"*, i8)** %24, align 8
  %26 = tail call signext i8 %25(%"class.std::ctype"* nonnull align 8 dereferenceable(570) %11, i8 signext 10)
  br label %27

27:                                               ; preds = %18, %21
  %28 = phi i8 [ %20, %18 ], [ %26, %21 ]
  %29 = call nonnull align 8 dereferenceable(16) %"class.std::basic_istream"* @_ZNSi7getlineEPclc(%"class.std::basic_istream"* nonnull align 8 dereferenceable(16) @_ZSt3cin, i8* nonnull %3, i64 500, i8 signext %28)
  %30 = call i64 @strlen(i8* noundef nonnull %3) #10
  %31 = trunc i64 %30 to i32
  %32 = icmp slt i32 %31, 2
  br i1 %32, label %117, label %33

33:                                               ; preds = %27
  %34 = add i64 %30, 1
  %35 = and i64 %34, 4294967295
  br label %36

36:                                               ; preds = %33, %114
  %37 = phi i64 [ 2, %33 ], [ %115, %114 ]
  %38 = phi i32 [ %31, %33 ], [ %39, %114 ]
  %39 = add i32 %38, -1
  %40 = trunc i64 %37 to i32
  %41 = icmp slt i32 %31, %40
  br i1 %41, label %114, label %42

42:                                               ; preds = %36
  %43 = lshr i64 %37, 1
  %44 = and i64 %43, 2147483647
  %45 = zext i32 %39 to i64
  br label %46

46:                                               ; preds = %111, %42
  %47 = phi i64 [ 0, %42 ], [ %112, %111 ]
  %48 = add nuw nsw i64 %47, %44
  %49 = shl nuw nsw i64 %47, 1
  %50 = add nuw nsw i64 %49, %37
  %51 = trunc i64 %47 to i32
  br label %52

52:                                               ; preds = %46, %64
  %53 = phi i64 [ %47, %46 ], [ %65, %64 ]
  %54 = phi i32 [ %51, %46 ], [ %66, %64 ]
  %55 = getelementptr inbounds [500 x i8], [500 x i8]* %2, i64 0, i64 %53
  %56 = load i8, i8* %55, align 1, !tbaa !15
  %57 = xor i64 %53, -1
  %58 = add nsw i64 %50, %57
  %59 = shl i64 %58, 32
  %60 = ashr exact i64 %59, 32
  %61 = getelementptr inbounds [500 x i8], [500 x i8]* %2, i64 0, i64 %60
  %62 = load i8, i8* %61, align 1, !tbaa !15
  %63 = icmp eq i8 %56, %62
  br i1 %63, label %64, label %68

64:                                               ; preds = %52
  %65 = add nuw nsw i64 %53, 1
  %66 = add nuw nsw i32 %54, 1
  %67 = icmp ult i64 %65, %48
  br i1 %67, label %52, label %70, !llvm.loop !16

68:                                               ; preds = %52
  %69 = trunc i64 %53 to i32
  br label %70

70:                                               ; preds = %64, %68
  %71 = phi i32 [ %69, %68 ], [ %66, %64 ]
  %72 = zext i32 %71 to i64
  %73 = icmp eq i64 %48, %72
  br i1 %73, label %74, label %111

74:                                               ; preds = %70
  %75 = add nuw nsw i64 %47, %37
  br label %76

76:                                               ; preds = %74, %76
  %77 = phi i64 [ %47, %74 ], [ %81, %76 ]
  %78 = getelementptr inbounds [500 x i8], [500 x i8]* %2, i64 0, i64 %77
  %79 = load i8, i8* %78, align 1, !tbaa !15
  call void @llvm.lifetime.start.p0i8(i64 1, i8* nonnull %1)
  store i8 %79, i8* %1, align 1, !tbaa !15
  %80 = call nonnull align 8 dereferenceable(8) %"class.std::basic_ostream"* @_ZSt16__ostream_insertIcSt11char_traitsIcEERSt13basic_ostreamIT_T0_ES6_PKS3_l(%"class.std::basic_ostream"* nonnull align 8 dereferenceable(8) @_ZSt4cout, i8* nonnull %1, i64 1)
  call void @llvm.lifetime.end.p0i8(i64 1, i8* nonnull %1)
  %81 = add nuw nsw i64 %77, 1
  %82 = icmp ult i64 %81, %75
  br i1 %82, label %76, label %83, !llvm.loop !18

83:                                               ; preds = %76
  %84 = load i8*, i8** bitcast (%"class.std::basic_ostream"* @_ZSt4cout to i8**), align 8, !tbaa !5
  %85 = getelementptr i8, i8* %84, i64 -24
  %86 = bitcast i8* %85 to i64*
  %87 = load i64, i64* %86, align 8
  %88 = add nsw i64 %87, 240
  %89 = getelementptr inbounds i8, i8* bitcast (%"class.std::basic_ostream"* @_ZSt4cout to i8*), i64 %88
  %90 = bitcast i8* %89 to %"class.std::ctype"**
  %91 = load %"class.std::ctype"*, %"class.std::ctype"** %90, align 8, !tbaa !8
  %92 = icmp eq %"class.std::ctype"* %91, null
  br i1 %92, label %93, label %94

93:                                               ; preds = %83
  call void @_ZSt16__throw_bad_castv() #9
  unreachable

94:                                               ; preds = %83
  %95 = getelementptr inbounds %"class.std::ctype", %"class.std::ctype"* %91, i64 0, i32 8
  %96 = load i8, i8* %95, align 8, !tbaa !13
  %97 = icmp eq i8 %96, 0
  br i1 %97, label %101, label %98

98:                                               ; preds = %94
  %99 = getelementptr inbounds %"class.std::ctype", %"class.std::ctype"* %91, i64 0, i32 9, i64 10
  %100 = load i8, i8* %99, align 1, !tbaa !15
  br label %107

101:                                              ; preds = %94
  call void @_ZNKSt5ctypeIcE13_M_widen_initEv(%"class.std::ctype"* nonnull align 8 dereferenceable(570) %91)
  %102 = bitcast %"class.std::ctype"* %91 to i8 (%"class.std::ctype"*, i8)***
  %103 = load i8 (%"class.std::ctype"*, i8)**, i8 (%"class.std::ctype"*, i8)*** %102, align 8, !tbaa !5
  %104 = getelementptr inbounds i8 (%"class.std::ctype"*, i8)*, i8 (%"class.std::ctype"*, i8)** %103, i64 6
  %105 = load i8 (%"class.std::ctype"*, i8)*, i8 (%"class.std::ctype"*, i8)** %104, align 8
  %106 = call signext i8 %105(%"class.std::ctype"* nonnull align 8 dereferenceable(570) %91, i8 signext 10)
  br label %107

107:                                              ; preds = %98, %101
  %108 = phi i8 [ %100, %98 ], [ %106, %101 ]
  %109 = call nonnull align 8 dereferenceable(8) %"class.std::basic_ostream"* @_ZNSo3putEc(%"class.std::basic_ostream"* nonnull align 8 dereferenceable(8) @_ZSt4cout, i8 signext %108)
  %110 = call nonnull align 8 dereferenceable(8) %"class.std::basic_ostream"* @_ZNSo5flushEv(%"class.std::basic_ostream"* nonnull align 8 dereferenceable(8) %109)
  br label %111

111:                                              ; preds = %70, %107
  %112 = add nuw nsw i64 %47, 1
  %113 = icmp eq i64 %112, %45
  br i1 %113, label %114, label %46, !llvm.loop !19

114:                                              ; preds = %111, %36
  %115 = add nuw nsw i64 %37, 1
  %116 = icmp eq i64 %115, %35
  br i1 %116, label %117, label %36, !llvm.loop !20

117:                                              ; preds = %114, %27
  call void @llvm.lifetime.end.p0i8(i64 500, i8* nonnull %3) #8
  ret i32 0
}

; Function Attrs: argmemonly mustprogress nofree nosync nounwind willreturn
declare void @llvm.lifetime.start.p0i8(i64 immarg, i8* nocapture) #4

; Function Attrs: argmemonly mustprogress nofree nounwind readonly willreturn
declare i64 @strlen(i8* nocapture) local_unnamed_addr #5

; Function Attrs: argmemonly mustprogress nofree nosync nounwind willreturn
declare void @llvm.lifetime.end.p0i8(i64 immarg, i8* nocapture) #4

declare nonnull align 8 dereferenceable(16) %"class.std::basic_istream"* @_ZNSi7getlineEPclc(%"class.std::basic_istream"* nonnull align 8 dereferenceable(16), i8*, i64, i8 signext) local_unnamed_addr #0

; Function Attrs: noreturn
declare void @_ZSt16__throw_bad_castv() local_unnamed_addr #6

declare void @_ZNKSt5ctypeIcE13_M_widen_initEv(%"class.std::ctype"* nonnull align 8 dereferenceable(570)) local_unnamed_addr #0

declare nonnull align 8 dereferenceable(8) %"class.std::basic_ostream"* @_ZSt16__ostream_insertIcSt11char_traitsIcEERSt13basic_ostreamIT_T0_ES6_PKS3_l(%"class.std::basic_ostream"* nonnull align 8 dereferenceable(8), i8*, i64) local_unnamed_addr #0

declare nonnull align 8 dereferenceable(8) %"class.std::basic_ostream"* @_ZNSo3putEc(%"class.std::basic_ostream"* nonnull align 8 dereferenceable(8), i8 signext) local_unnamed_addr #0

declare nonnull align 8 dereferenceable(8) %"class.std::basic_ostream"* @_ZNSo5flushEv(%"class.std::basic_ostream"* nonnull align 8 dereferenceable(8)) local_unnamed_addr #0

; Function Attrs: sspstrong uwtable
define internal void @_GLOBAL__sub_I_618.cpp() #7 section ".text.startup" {
  tail call void @_ZNSt8ios_base4InitC1Ev(%"class.std::ios_base::Init"* nonnull align 1 dereferenceable(1) @_ZStL8__ioinit)
  %1 = tail call i32 @__cxa_atexit(void (i8*)* bitcast (void (%"class.std::ios_base::Init"*)* @_ZNSt8ios_base4InitD1Ev to void (i8*)*), i8* getelementptr inbounds (%"class.std::ios_base::Init", %"class.std::ios_base::Init"* @_ZStL8__ioinit, i64 0, i32 0), i8* nonnull @__dso_handle) #8
  ret void
}


!llvm.module.flags = !{!0, !1, !2, !3}
!llvm.ident = !{!4}

!0 = !{i32 1, !"wchar_size", i32 4}
!1 = !{i32 7, !"PIC Level", i32 2}
!2 = !{i32 7, !"PIE Level", i32 2}
!3 = !{i32 7, !"uwtable", i32 1}
!4 = !{!"clang version 13.0.0"}
!5 = !{!6, !6, i64 0}
!6 = !{!"vtable pointer", !7, i64 0}
!7 = !{!"Simple C++ TBAA"}
!8 = !{!9, !10, i64 240}
!9 = !{!"_ZTSSt9basic_iosIcSt11char_traitsIcEE", !10, i64 216, !11, i64 224, !12, i64 225, !10, i64 232, !10, i64 240, !10, i64 248, !10, i64 256}
!10 = !{!"any pointer", !11, i64 0}
!11 = !{!"omnipotent char", !7, i64 0}
!12 = !{!"bool", !11, i64 0}
!13 = !{!14, !11, i64 56}
!14 = !{!"_ZTSSt5ctypeIcE", !10, i64 16, !12, i64 24, !10, i64 32, !10, i64 40, !10, i64 48, !11, i64 56, !11, i64 57, !11, i64 313, !11, i64 569}
!15 = !{!11, !11, i64 0}
!16 = distinct !{!16, !17}
!17 = !{!"llvm.loop.mustprogress"}
!18 = distinct !{!18, !17}
!19 = distinct !{!19, !17}
!20 = distinct !{!20, !17}
